target datalayout = "e-m:e-p270:32:32-p271:32:32-p272:64:64-i64:64-i128:128-f80:128-n8:16:32:64-S128"
target triple = "x86_64-unknown-linux-gnu"

%"class.std::_Deque_base" = type { %"struct.std::_Deque_base<(anonymous namespace)::ValuePair, std::allocator<(anonymous namespace)::ValuePair>>::_Deque_impl" }
%"struct.std::_Deque_base<(anonymous namespace)::ValuePair, std::allocator<(anonymous namespace)::ValuePair>>::_Deque_impl" = type { %"struct.std::_Deque_base<(anonymous namespace)::ValuePair, std::allocator<(anonymous namespace)::ValuePair>>::_Deque_impl_data" }
%"struct.std::_Deque_base<(anonymous namespace)::ValuePair, std::allocator<(anonymous namespace)::ValuePair>>::_Deque_impl_data" = type { ptr, i64, %"struct.std::_Deque_iterator", %"struct.std::_Deque_iterator" }
%"struct.std::_Deque_iterator" = type { ptr, ptr, ptr, ptr }
%"class.std::allocator.0" = type { i8 }

; Function Attrs: mustprogress nounwind uwtable
define internal void @_ZNSt15__new_allocatorIPN12_GLOBAL__N_19ValuePairEEC2Ev(ptr noundef nonnull align 1 dereferenceable(1) %this) unnamed_addr #3 align 2 {
entry:
  %this.addr = alloca ptr, align 8
  store ptr %this, ptr %this.addr, align 8
  ret void
}

; Function Attrs: mustprogress nounwind uwtable
define internal void @_ZNSt15__new_allocatorIN12_GLOBAL__N_19ValuePairEE10deallocateEPS1_m(ptr noundef nonnull align 1 dereferenceable(1) %this, ptr noundef %__p, i64 noundef %__n) #3 align 2 {
entry:
  %this.addr = alloca ptr, align 8
  %__p.addr = alloca ptr, align 8
  %__n.addr = alloca i64, align 8
  store ptr %this, ptr %this.addr, align 8
  store ptr %__p, ptr %__p.addr, align 8
  store i64 %__n, ptr %__n.addr, align 8
  %0 = load ptr, ptr %__p.addr, align 8
  call void @_ZdlPv(ptr noundef %0) #14
  ret void
}

; Function Attrs: mustprogress nounwind uwtable
define internal void @_ZNSt15__new_allocatorIN12_GLOBAL__N_19ValuePairEED2Ev(ptr noundef nonnull align 1 dereferenceable(1) %this) unnamed_addr #3 align 2 {
entry:
  %this.addr = alloca ptr, align 8
  store ptr %this, ptr %this.addr, align 8
  ret void
}

; Function Attrs: mustprogress nounwind uwtable
define internal void @_ZNSt15__new_allocatorIPN12_GLOBAL__N_19ValuePairEED2Ev(ptr noundef nonnull align 1 dereferenceable(1) %this) unnamed_addr #3 align 2 {
entry:
  %this.addr = alloca ptr, align 8
  store ptr %this, ptr %this.addr, align 8
  ret void
}

; Function Attrs: mustprogress nounwind uwtable
define internal void @_ZNSt15__new_allocatorIPN12_GLOBAL__N_19ValuePairEE10deallocateEPS2_m(ptr noundef nonnull align 1 dereferenceable(1) %this, ptr noundef %__p, i64 noundef %__n) #3 align 2 {
entry:
  %this.addr = alloca ptr, align 8
  %__p.addr = alloca ptr, align 8
  %__n.addr = alloca i64, align 8
  store ptr %this, ptr %this.addr, align 8
  store ptr %__p, ptr %__p.addr, align 8
  store i64 %__n, ptr %__n.addr, align 8
  %0 = load ptr, ptr %__p.addr, align 8
  call void @_ZdlPv(ptr noundef %0) #14
  ret void
}

; Function Attrs: mustprogress nounwind uwtable
define internal void @_ZNSaIPN12_GLOBAL__N_19ValuePairEEC2IS0_EERKSaIT_E(ptr noundef nonnull align 1 dereferenceable(1) %this, ptr noundef nonnull align 1 dereferenceable(1) %0) unnamed_addr #3 align 2 {
entry:
  %this.addr = alloca ptr, align 8
  %.addr = alloca ptr, align 8
  store ptr %this, ptr %this.addr, align 8
  store ptr %0, ptr %.addr, align 8
  %this1 = load ptr, ptr %this.addr, align 8
  call void @_ZNSt15__new_allocatorIPN12_GLOBAL__N_19ValuePairEEC2Ev(ptr noundef nonnull align 1 dereferenceable(1) %this1) #9
  ret void
}

; Function Attrs: mustprogress nounwind uwtable
define internal noundef nonnull align 1 dereferenceable(1) ptr @_ZNKSt11_Deque_baseIN12_GLOBAL__N_19ValuePairESaIS1_EE19_M_get_Tp_allocatorEv(ptr noundef nonnull align 8 dereferenceable(80) %this) #3 align 2 {
entry:
  %this.addr = alloca ptr, align 8
  store ptr %this, ptr %this.addr, align 8
  %this1 = load ptr, ptr %this.addr, align 8
  %_M_impl = getelementptr inbounds %"class.std::_Deque_base", ptr %this1, i32 0, i32 0
  ret ptr %_M_impl
}

; Function Attrs: mustprogress uwtable
define internal void @_ZNSt16allocator_traitsISaIN12_GLOBAL__N_19ValuePairEEE10deallocateERS2_PS1_m(ptr noundef nonnull align 1 dereferenceable(1) %__a, ptr noundef %__p, i64 noundef %__n) #0 align 2 {
entry:
  %__a.addr = alloca ptr, align 8
  %__p.addr = alloca ptr, align 8
  %__n.addr = alloca i64, align 8
  store ptr %__a, ptr %__a.addr, align 8
  store ptr %__p, ptr %__p.addr, align 8
  store i64 %__n, ptr %__n.addr, align 8
  %0 = load ptr, ptr %__a.addr, align 8
  %1 = load ptr, ptr %__p.addr, align 8
  %2 = load i64, ptr %__n.addr, align 8
  call void @_ZNSt15__new_allocatorIN12_GLOBAL__N_19ValuePairEE10deallocateEPS1_m(ptr noundef nonnull align 1 dereferenceable(1) %0, ptr noundef %1, i64 noundef %2)
  ret void
}

; Function Attrs: mustprogress nounwind uwtable
define linkonce_odr dso_local noundef i64 @_ZSt16__deque_buf_sizem(i64 noundef %__size) #3 comdat {
entry:
  %__size.addr = alloca i64, align 8
  store i64 %__size, ptr %__size.addr, align 8
  %0 = load i64, ptr %__size.addr, align 8
  %cmp = icmp ult i64 %0, 512
  br i1 %cmp, label %cond.true, label %cond.false

cond.true:                                        ; preds = %entry
  %1 = load i64, ptr %__size.addr, align 8
  %div = udiv i64 512, %1
  br label %cond.end

cond.false:                                       ; preds = %entry
  br label %cond.end

cond.end:                                         ; preds = %cond.false, %cond.true
  %cond = phi i64 [ %div, %cond.true ], [ 1, %cond.false ]
  ret i64 %cond
}

; Function Attrs: mustprogress nounwind uwtable
define internal void @_ZNSaIN12_GLOBAL__N_19ValuePairEED2Ev(ptr noundef nonnull align 1 dereferenceable(1) %this) unnamed_addr #3 align 2 {
entry:
  %this.addr = alloca ptr, align 8
  store ptr %this, ptr %this.addr, align 8
  %this1 = load ptr, ptr %this.addr, align 8
  call void @_ZNSt15__new_allocatorIN12_GLOBAL__N_19ValuePairEED2Ev(ptr noundef nonnull align 1 dereferenceable(1) %this1) #9
  ret void
}

; Function Attrs: mustprogress nounwind uwtable
define internal void @_ZNSaIPN12_GLOBAL__N_19ValuePairEED2Ev(ptr noundef nonnull align 1 dereferenceable(1) %this) unnamed_addr #3 align 2 {
entry:
  %this.addr = alloca ptr, align 8
  store ptr %this, ptr %this.addr, align 8
  %this1 = load ptr, ptr %this.addr, align 8
  call void @_ZNSt15__new_allocatorIPN12_GLOBAL__N_19ValuePairEED2Ev(ptr noundef nonnull align 1 dereferenceable(1) %this1) #9
  ret void
}

; Function Attrs: mustprogress uwtable
define internal void @_ZNSt16allocator_traitsISaIPN12_GLOBAL__N_19ValuePairEEE10deallocateERS3_PS2_m(ptr noundef nonnull align 1 dereferenceable(1) %__a, ptr noundef %__p, i64 noundef %__n) #0 align 2 {
entry:
  %__a.addr = alloca ptr, align 8
  %__p.addr = alloca ptr, align 8
  %__n.addr = alloca i64, align 8
  store ptr %__a, ptr %__a.addr, align 8
  store ptr %__p, ptr %__p.addr, align 8
  store i64 %__n, ptr %__n.addr, align 8
  %0 = load ptr, ptr %__a.addr, align 8
  %1 = load ptr, ptr %__p.addr, align 8
  %2 = load i64, ptr %__n.addr, align 8
  call void @_ZNSt15__new_allocatorIPN12_GLOBAL__N_19ValuePairEE10deallocateEPS2_m(ptr noundef nonnull align 1 dereferenceable(1) %0, ptr noundef %1, i64 noundef %2)
  ret void
}

; Function Attrs: mustprogress nounwind uwtable
define internal void @_ZNKSt11_Deque_baseIN12_GLOBAL__N_19ValuePairESaIS1_EE20_M_get_map_allocatorEv(ptr noalias sret(%"class.std::allocator.0") align 1 %agg.result, ptr noundef nonnull align 8 dereferenceable(80) %this) #3 align 2 {
entry:
  %result.ptr = alloca ptr, align 8
  %this.addr = alloca ptr, align 8
  store ptr %agg.result, ptr %result.ptr, align 8
  store ptr %this, ptr %this.addr, align 8
  %this1 = load ptr, ptr %this.addr, align 8
  %call = call noundef nonnull align 1 dereferenceable(1) ptr @_ZNKSt11_Deque_baseIN12_GLOBAL__N_19ValuePairESaIS1_EE19_M_get_Tp_allocatorEv(ptr noundef nonnull align 8 dereferenceable(80) %this1) #9
  call void @_ZNSaIPN12_GLOBAL__N_19ValuePairEEC2IS0_EERKSaIT_E(ptr noundef nonnull align 1 dereferenceable(1) %agg.result, ptr noundef nonnull align 1 dereferenceable(1) %call) #9
  ret void
}

; Function Attrs: mustprogress nounwind uwtable
define internal void @_ZNSt11_Deque_baseIN12_GLOBAL__N_19ValuePairESaIS1_EE18_M_deallocate_nodeEPS1_(ptr noundef nonnull align 8 dereferenceable(80) %this, ptr noundef %__p) #3 align 2 personality ptr @__gxx_personality_v0 {
entry:
  %this.addr = alloca ptr, align 8
  %__p.addr = alloca ptr, align 8
  store ptr %this, ptr %this.addr, align 8
  store ptr %__p, ptr %__p.addr, align 8
  %this1 = load ptr, ptr %this.addr, align 8
  %_M_impl = getelementptr inbounds %"class.std::_Deque_base", ptr %this1, i32 0, i32 0
  %0 = load ptr, ptr %__p.addr, align 8
  %call = call noundef i64 @_ZSt16__deque_buf_sizem(i64 noundef 8)
  invoke void @_ZNSt16allocator_traitsISaIN12_GLOBAL__N_19ValuePairEEE10deallocateERS2_PS1_m(ptr noundef nonnull align 1 dereferenceable(1) %_M_impl, ptr noundef %0, i64 noundef %call)
          to label %invoke.cont unwind label %terminate.lpad

invoke.cont:                                      ; preds = %entry
  ret void

terminate.lpad:                                   ; preds = %entry
  %1 = landingpad { ptr, i32 }
          catch ptr null
  %2 = extractvalue { ptr, i32 } %1, 0
  call void @__clang_call_terminate(ptr %2) #11
  unreachable
}

; Function Attrs: mustprogress nounwind uwtable
define internal void @_ZNSt11_Deque_baseIN12_GLOBAL__N_19ValuePairESaIS1_EE11_Deque_implD2Ev(ptr noundef nonnull align 8 dereferenceable(80) %this) unnamed_addr #3 align 2 {
entry:
  %this.addr = alloca ptr, align 8
  store ptr %this, ptr %this.addr, align 8
  %this1 = load ptr, ptr %this.addr, align 8
  call void @_ZNSaIN12_GLOBAL__N_19ValuePairEED2Ev(ptr noundef nonnull align 1 dereferenceable(1) %this1) #9
  ret void
}

; Function Attrs: mustprogress nounwind uwtable
define internal void @_ZNSt11_Deque_baseIN12_GLOBAL__N_19ValuePairESaIS1_EE17_M_deallocate_mapEPPS1_m(ptr noundef nonnull align 8 dereferenceable(80) %this, ptr noundef %__p, i64 noundef %__n) #3 align 2 personality ptr @__gxx_personality_v0 {
entry:
  %this.addr = alloca ptr, align 8
  %__p.addr = alloca ptr, align 8
  %__n.addr = alloca i64, align 8
  %__map_alloc = alloca %"class.std::allocator.0", align 1
  store ptr %this, ptr %this.addr, align 8
  store ptr %__p, ptr %__p.addr, align 8
  store i64 %__n, ptr %__n.addr, align 8
  %this1 = load ptr, ptr %this.addr, align 8
  call void @_ZNKSt11_Deque_baseIN12_GLOBAL__N_19ValuePairESaIS1_EE20_M_get_map_allocatorEv(ptr sret(%"class.std::allocator.0") align 1 %__map_alloc, ptr noundef nonnull align 8 dereferenceable(80) %this1) #9
  %0 = load ptr, ptr %__p.addr, align 8
  %1 = load i64, ptr %__n.addr, align 8
  invoke void @_ZNSt16allocator_traitsISaIPN12_GLOBAL__N_19ValuePairEEE10deallocateERS3_PS2_m(ptr noundef nonnull align 1 dereferenceable(1) %__map_alloc, ptr noundef %0, i64 noundef %1)
          to label %invoke.cont unwind label %terminate.lpad

invoke.cont:                                      ; preds = %entry
  call void @_ZNSaIPN12_GLOBAL__N_19ValuePairEED2Ev(ptr noundef nonnull align 1 dereferenceable(1) %__map_alloc) #9
  ret void

terminate.lpad:                                   ; preds = %entry
  %2 = landingpad { ptr, i32 }
          catch ptr null
  %3 = extractvalue { ptr, i32 } %2, 0
  call void @__clang_call_terminate(ptr %3) #11
  unreachable
}

; Function Attrs: mustprogress nounwind uwtable
define internal void @_ZNSt11_Deque_baseIN12_GLOBAL__N_19ValuePairESaIS1_EE16_M_destroy_nodesEPPS1_S5_(ptr noundef nonnull align 8 dereferenceable(80) %this, ptr noundef %__nstart, ptr noundef %__nfinish) #3 align 2 {
entry:
  %this.addr = alloca ptr, align 8
  %__nstart.addr = alloca ptr, align 8
  %__nfinish.addr = alloca ptr, align 8
  %__n = alloca ptr, align 8
  store ptr %this, ptr %this.addr, align 8
  store ptr %__nstart, ptr %__nstart.addr, align 8
  store ptr %__nfinish, ptr %__nfinish.addr, align 8
  %this1 = load ptr, ptr %this.addr, align 8
  %0 = load ptr, ptr %__nstart.addr, align 8
  store ptr %0, ptr %__n, align 8
  br label %for.cond

for.cond:                                         ; preds = %for.inc, %entry
  %1 = load ptr, ptr %__n, align 8
  %2 = load ptr, ptr %__nfinish.addr, align 8
  %cmp = icmp ult ptr %1, %2
  br i1 %cmp, label %for.body, label %for.end

for.body:                                         ; preds = %for.cond
  %3 = load ptr, ptr %__n, align 8
  %4 = load ptr, ptr %3, align 8
  call void @_ZNSt11_Deque_baseIN12_GLOBAL__N_19ValuePairESaIS1_EE18_M_deallocate_nodeEPS1_(ptr noundef nonnull align 8 dereferenceable(80) %this1, ptr noundef %4) #9
  br label %for.inc

for.inc:                                          ; preds = %for.body
  %5 = load ptr, ptr %__n, align 8
  %incdec.ptr = getelementptr inbounds ptr, ptr %5, i32 1
  store ptr %incdec.ptr, ptr %__n, align 8
  br label %for.cond, !llvm.loop !22

for.end:                                          ; preds = %for.cond
  ret void
}

; Function Attrs: mustprogress nounwind uwtable
define internal void @_ZNSt15_Deque_iteratorIN12_GLOBAL__N_19ValuePairERS1_PS1_EC2ERKS4_(ptr noundef nonnull align 8 dereferenceable(32) %this, ptr noundef nonnull align 8 dereferenceable(32) %__x) unnamed_addr #3 align 2 {
entry:
  %this.addr = alloca ptr, align 8
  %__x.addr = alloca ptr, align 8
  store ptr %this, ptr %this.addr, align 8
  store ptr %__x, ptr %__x.addr, align 8
  %this1 = load ptr, ptr %this.addr, align 8
  %_M_cur = getelementptr inbounds %"struct.std::_Deque_iterator", ptr %this1, i32 0, i32 0
  %0 = load ptr, ptr %__x.addr, align 8
  %_M_cur2 = getelementptr inbounds %"struct.std::_Deque_iterator", ptr %0, i32 0, i32 0
  %1 = load ptr, ptr %_M_cur2, align 8
  store ptr %1, ptr %_M_cur, align 8
  %_M_first = getelementptr inbounds %"struct.std::_Deque_iterator", ptr %this1, i32 0, i32 1
  %2 = load ptr, ptr %__x.addr, align 8
  %_M_first3 = getelementptr inbounds %"struct.std::_Deque_iterator", ptr %2, i32 0, i32 1
  %3 = load ptr, ptr %_M_first3, align 8
  store ptr %3, ptr %_M_first, align 8
  %_M_last = getelementptr inbounds %"struct.std::_Deque_iterator", ptr %this1, i32 0, i32 2
  %4 = load ptr, ptr %__x.addr, align 8
  %_M_last4 = getelementptr inbounds %"struct.std::_Deque_iterator", ptr %4, i32 0, i32 2
  %5 = load ptr, ptr %_M_last4, align 8
  store ptr %5, ptr %_M_last, align 8
  %_M_node = getelementptr inbounds %"struct.std::_Deque_iterator", ptr %this1, i32 0, i32 3
  %6 = load ptr, ptr %__x.addr, align 8
  %_M_node5 = getelementptr inbounds %"struct.std::_Deque_iterator", ptr %6, i32 0, i32 3
  %7 = load ptr, ptr %_M_node5, align 8
  store ptr %7, ptr %_M_node, align 8
  ret void
}

; Function Attrs: noreturn nounwind uwtable
define linkonce_odr hidden void @__clang_call_terminate(ptr noundef %0) #5 comdat {
  %2 = call ptr @__cxa_begin_catch(ptr %0) #9
  call void @_ZSt9terminatev() #11
  unreachable
}

; Function Attrs: mustprogress nounwind uwtable
define internal void @_ZNSt11_Deque_baseIN12_GLOBAL__N_19ValuePairESaIS1_EED2Ev(ptr noundef nonnull align 8 dereferenceable(80) %this) unnamed_addr #3 align 2 {
entry:
  %this.addr = alloca ptr, align 8
  store ptr %this, ptr %this.addr, align 8
  %this1 = load ptr, ptr %this.addr, align 8
  %_M_impl = getelementptr inbounds %"class.std::_Deque_base", ptr %this1, i32 0, i32 0
  %_M_map = getelementptr inbounds %"struct.std::_Deque_base<(anonymous namespace)::ValuePair, std::allocator<(anonymous namespace)::ValuePair>>::_Deque_impl_data", ptr %_M_impl, i32 0, i32 0
  %0 = load ptr, ptr %_M_map, align 8
  %tobool = icmp ne ptr %0, null
  br i1 %tobool, label %if.then, label %if.end

if.then:                                          ; preds = %entry
  %_M_impl2 = getelementptr inbounds %"class.std::_Deque_base", ptr %this1, i32 0, i32 0
  %_M_start = getelementptr inbounds %"struct.std::_Deque_base<(anonymous namespace)::ValuePair, std::allocator<(anonymous namespace)::ValuePair>>::_Deque_impl_data", ptr %_M_impl2, i32 0, i32 2
  %_M_node = getelementptr inbounds %"struct.std::_Deque_iterator", ptr %_M_start, i32 0, i32 3
  %1 = load ptr, ptr %_M_node, align 8
  %_M_impl3 = getelementptr inbounds %"class.std::_Deque_base", ptr %this1, i32 0, i32 0
  %_M_finish = getelementptr inbounds %"struct.std::_Deque_base<(anonymous namespace)::ValuePair, std::allocator<(anonymous namespace)::ValuePair>>::_Deque_impl_data", ptr %_M_impl3, i32 0, i32 3
  %_M_node4 = getelementptr inbounds %"struct.std::_Deque_iterator", ptr %_M_finish, i32 0, i32 3
  %2 = load ptr, ptr %_M_node4, align 8
  %add.ptr = getelementptr inbounds ptr, ptr %2, i64 1
  call void @_ZNSt11_Deque_baseIN12_GLOBAL__N_19ValuePairESaIS1_EE16_M_destroy_nodesEPPS1_S5_(ptr noundef nonnull align 8 dereferenceable(80) %this1, ptr noundef %1, ptr noundef %add.ptr) #9
  %_M_impl5 = getelementptr inbounds %"class.std::_Deque_base", ptr %this1, i32 0, i32 0
  %_M_map6 = getelementptr inbounds %"struct.std::_Deque_base<(anonymous namespace)::ValuePair, std::allocator<(anonymous namespace)::ValuePair>>::_Deque_impl_data", ptr %_M_impl5, i32 0, i32 0
  %3 = load ptr, ptr %_M_map6, align 8
  %_M_impl7 = getelementptr inbounds %"class.std::_Deque_base", ptr %this1, i32 0, i32 0
  %_M_map_size = getelementptr inbounds %"struct.std::_Deque_base<(anonymous namespace)::ValuePair, std::allocator<(anonymous namespace)::ValuePair>>::_Deque_impl_data", ptr %_M_impl7, i32 0, i32 1
  %4 = load i64, ptr %_M_map_size, align 8
  call void @_ZNSt11_Deque_baseIN12_GLOBAL__N_19ValuePairESaIS1_EE17_M_deallocate_mapEPPS1_m(ptr noundef nonnull align 8 dereferenceable(80) %this1, ptr noundef %3, i64 noundef %4) #9
  br label %if.end

if.end:                                           ; preds = %if.then, %entry
  %_M_impl8 = getelementptr inbounds %"class.std::_Deque_base", ptr %this1, i32 0, i32 0
  call void @_ZNSt11_Deque_baseIN12_GLOBAL__N_19ValuePairESaIS1_EE11_Deque_implD2Ev(ptr noundef nonnull align 8 dereferenceable(80) %_M_impl8) #9
  ret void
}

; Function Attrs: mustprogress nounwind uwtable
define internal void @_ZNSt5dequeIN12_GLOBAL__N_19ValuePairESaIS1_EE15_M_destroy_dataESt15_Deque_iteratorIS1_RS1_PS1_ES7_RKS2_(ptr noundef nonnull align 8 dereferenceable(80) %this, ptr noundef %__first, ptr noundef %__last, ptr noundef nonnull align 1 dereferenceable(1) %0) #3 align 2 {
entry:
  %this.addr = alloca ptr, align 8
  %__first.indirect_addr = alloca ptr, align 8
  %__last.indirect_addr = alloca ptr, align 8
  %.addr = alloca ptr, align 8
  store ptr %this, ptr %this.addr, align 8
  store ptr %__first, ptr %__first.indirect_addr, align 8
  store ptr %__last, ptr %__last.indirect_addr, align 8
  store ptr %0, ptr %.addr, align 8
  ret void
}

; Function Attrs: mustprogress nounwind uwtable
define internal noundef nonnull align 1 dereferenceable(1) ptr @_ZNSt11_Deque_baseIN12_GLOBAL__N_19ValuePairESaIS1_EE19_M_get_Tp_allocatorEv(ptr noundef nonnull align 8 dereferenceable(80) %this) #3 align 2 {
entry:
  %this.addr = alloca ptr, align 8
  store ptr %this, ptr %this.addr, align 8
  %this1 = load ptr, ptr %this.addr, align 8
  %_M_impl = getelementptr inbounds %"class.std::_Deque_base", ptr %this1, i32 0, i32 0
  ret ptr %_M_impl
}

; Function Attrs: mustprogress nounwind uwtable
define internal void @_ZNSt5dequeIN12_GLOBAL__N_19ValuePairESaIS1_EE3endEv(ptr noalias sret(%"struct.std::_Deque_iterator") align 8 %agg.result, ptr noundef nonnull align 8 dereferenceable(80) %this) #3 align 2 {
entry:
  %result.ptr = alloca ptr, align 8
  %this.addr = alloca ptr, align 8
  store ptr %agg.result, ptr %result.ptr, align 8
  store ptr %this, ptr %this.addr, align 8
  %this1 = load ptr, ptr %this.addr, align 8
  %_M_impl = getelementptr inbounds %"class.std::_Deque_base", ptr %this1, i32 0, i32 0
  %_M_finish = getelementptr inbounds %"struct.std::_Deque_base<(anonymous namespace)::ValuePair, std::allocator<(anonymous namespace)::ValuePair>>::_Deque_impl_data", ptr %_M_impl, i32 0, i32 3
  call void @_ZNSt15_Deque_iteratorIN12_GLOBAL__N_19ValuePairERS1_PS1_EC2ERKS4_(ptr noundef nonnull align 8 dereferenceable(32) %agg.result, ptr noundef nonnull align 8 dereferenceable(32) %_M_finish) #9
  ret void
}

; Function Attrs: mustprogress nounwind uwtable
define internal void @_ZNSt5dequeIN12_GLOBAL__N_19ValuePairESaIS1_EE5beginEv(ptr noalias sret(%"struct.std::_Deque_iterator") align 8 %agg.result, ptr noundef nonnull align 8 dereferenceable(80) %this) #3 align 2 {
entry:
  %result.ptr = alloca ptr, align 8
  %this.addr = alloca ptr, align 8
  store ptr %agg.result, ptr %result.ptr, align 8
  store ptr %this, ptr %this.addr, align 8
  %this1 = load ptr, ptr %this.addr, align 8
  %_M_impl = getelementptr inbounds %"class.std::_Deque_base", ptr %this1, i32 0, i32 0
  %_M_start = getelementptr inbounds %"struct.std::_Deque_base<(anonymous namespace)::ValuePair, std::allocator<(anonymous namespace)::ValuePair>>::_Deque_impl_data", ptr %_M_impl, i32 0, i32 2
  call void @_ZNSt15_Deque_iteratorIN12_GLOBAL__N_19ValuePairERS1_PS1_EC2ERKS4_(ptr noundef nonnull align 8 dereferenceable(32) %agg.result, ptr noundef nonnull align 8 dereferenceable(32) %_M_start) #9
  ret void
}

; Function Attrs: mustprogress nounwind uwtable
define internal void @_ZNSt5dequeIN12_GLOBAL__N_19ValuePairESaIS1_EED2Ev(ptr noundef nonnull align 8 dereferenceable(80) %this) unnamed_addr #3 align 2 personality ptr @__gxx_personality_v0 {
entry:
  %this.addr = alloca ptr, align 8
  %agg.tmp = alloca %"struct.std::_Deque_iterator", align 8
  %agg.tmp2 = alloca %"struct.std::_Deque_iterator", align 8
  store ptr %this, ptr %this.addr, align 8
  %this1 = load ptr, ptr %this.addr, align 8
  call void @_ZNSt5dequeIN12_GLOBAL__N_19ValuePairESaIS1_EE5beginEv(ptr sret(%"struct.std::_Deque_iterator") align 8 %agg.tmp, ptr noundef nonnull align 8 dereferenceable(80) %this1) #9
  call void @_ZNSt5dequeIN12_GLOBAL__N_19ValuePairESaIS1_EE3endEv(ptr sret(%"struct.std::_Deque_iterator") align 8 %agg.tmp2, ptr noundef nonnull align 8 dereferenceable(80) %this1) #9
  %call = call noundef nonnull align 1 dereferenceable(1) ptr @_ZNSt11_Deque_baseIN12_GLOBAL__N_19ValuePairESaIS1_EE19_M_get_Tp_allocatorEv(ptr noundef nonnull align 8 dereferenceable(80) %this1) #9
  invoke void @_ZNSt5dequeIN12_GLOBAL__N_19ValuePairESaIS1_EE15_M_destroy_dataESt15_Deque_iteratorIS1_RS1_PS1_ES7_RKS2_(ptr noundef nonnull align 8 dereferenceable(80) %this1, ptr noundef %agg.tmp, ptr noundef %agg.tmp2, ptr noundef nonnull align 1 dereferenceable(1) %call)
          to label %invoke.cont unwind label %terminate.lpad

invoke.cont:                                      ; preds = %entry
  call void @_ZNSt11_Deque_baseIN12_GLOBAL__N_19ValuePairESaIS1_EED2Ev(ptr noundef nonnull align 8 dereferenceable(80) %this1) #9
  ret void

terminate.lpad:                                   ; preds = %entry
  %0 = landingpad { ptr, i32 }
          catch ptr null
  %1 = extractvalue { ptr, i32 } %0, 0
  call void @__clang_call_terminate(ptr %1) #11
  unreachable
}