; Function Attrs: mustprogress nounwind uwtable
define internal fastcc void @_ZNSt5dequeIN12_GLOBAL__N_19ValuePairESaIS1_EED2Ev(ptr noundef nonnull readonly align 8 captures(none) dereferenceable(80) %this) unnamed_addr #4 align 2 personality ptr @__gxx_personality_v0 {
entry:
  %0 = load ptr, ptr %this, align 8
  %tobool.not.i = icmp eq ptr %0, null
  br i1 %tobool.not.i, label %_ZNSt11_Deque_baseIN12_GLOBAL__N_19ValuePairESaIS1_EED2Ev.exit, label %if.then.i

if.then.i:                                        ; preds = %entry
  %_M_node5.i.i6 = getelementptr inbounds nuw i8, ptr %this, i64 72
  %_M_node5.i.i = getelementptr inbounds nuw i8, ptr %this, i64 40
  %1 = load ptr, ptr %_M_node5.i.i, align 8
  %2 = load ptr, ptr %_M_node5.i.i6, align 8
  %add.ptr.i = getelementptr inbounds nuw i8, ptr %2, i64 8
  %cmp1.i.i = icmp ult ptr %1, %add.ptr.i
  br i1 %cmp1.i.i, label %for.body.i.i, label %_ZNSt11_Deque_baseIN12_GLOBAL__N_19ValuePairESaIS1_EE16_M_destroy_nodesEPPS1_S5_.exit.i

for.body.i.i:                                     ; preds = %if.then.i, %for.body.i.i
  %__n.02.i.i = phi ptr [ %incdec.ptr.i.i, %for.body.i.i ], [ %1, %if.then.i ]
  %3 = load ptr, ptr %__n.02.i.i, align 8
  tail call void @_ZdlPv(ptr noundef %3) #20
  %incdec.ptr.i.i = getelementptr inbounds nuw i8, ptr %__n.02.i.i, i64 8
  %cmp.i.i = icmp ult ptr %__n.02.i.i, %2
  br i1 %cmp.i.i, label %for.body.i.i, label %_ZNSt11_Deque_baseIN12_GLOBAL__N_19ValuePairESaIS1_EE16_M_destroy_nodesEPPS1_S5_.exit.loopexit.i, !llvm.loop !323

_ZNSt11_Deque_baseIN12_GLOBAL__N_19ValuePairESaIS1_EE16_M_destroy_nodesEPPS1_S5_.exit.loopexit.i: ; preds = %for.body.i.i
  %.pre.i = load ptr, ptr %this, align 8
  br label %_ZNSt11_Deque_baseIN12_GLOBAL__N_19ValuePairESaIS1_EE16_M_destroy_nodesEPPS1_S5_.exit.i

_ZNSt11_Deque_baseIN12_GLOBAL__N_19ValuePairESaIS1_EE16_M_destroy_nodesEPPS1_S5_.exit.i: ; preds = %_ZNSt11_Deque_baseIN12_GLOBAL__N_19ValuePairESaIS1_EE16_M_destroy_nodesEPPS1_S5_.exit.loopexit.i, %if.then.i
  %4 = phi ptr [ %.pre.i, %_ZNSt11_Deque_baseIN12_GLOBAL__N_19ValuePairESaIS1_EE16_M_destroy_nodesEPPS1_S5_.exit.loopexit.i ], [ %0, %if.then.i ]
  tail call void @_ZdlPv(ptr noundef %4) #20
  br label %_ZNSt11_Deque_baseIN12_GLOBAL__N_19ValuePairESaIS1_EED2Ev.exit

_ZNSt11_Deque_baseIN12_GLOBAL__N_19ValuePairESaIS1_EED2Ev.exit: ; preds = %entry, %_ZNSt11_Deque_baseIN12_GLOBAL__N_19ValuePairESaIS1_EE16_M_destroy_nodesEPPS1_S5_.exit.i
  ret void
}